target datalayout = "e-m:e-p270:32:32-p271:32:32-p272:64:64-i64:64-i128:128-f80:128-n8:16:32:64-S128"
target triple = "x86_64-pc-linux-gnu"

; Function Attrs: mustprogress uwtable
define dso_local noundef ptr @_ZN5cmsys11SystemTools22RemoveCharsButUpperHexEPKc(ptr noundef %0) #7 align 2 {
  %2 = alloca ptr, align 8
  %3 = alloca ptr, align 8
  %4 = alloca ptr, align 8
  %5 = alloca ptr, align 8
  store ptr %0, ptr %3, align 8, !tbaa !13
  %6 = load ptr, ptr %3, align 8, !tbaa !13
  %7 = icmp ne ptr %6, null
  br i1 %7, label %9, label %8

8:                                                ; preds = %1
  store ptr null, ptr %2, align 8
  br label %50

9:                                                ; preds = %1
  call void @llvm.lifetime.start.p0(i64 8, ptr %4) #1
  %10 = load ptr, ptr %3, align 8, !tbaa !13
  %11 = call i64 @strlen(ptr noundef %10) #24
  %12 = add i64 %11, 1
  %13 = call noalias noundef nonnull ptr @_Znam(i64 noundef %12) #25
  store ptr %13, ptr %4, align 8, !tbaa !13
  call void @llvm.lifetime.start.p0(i64 8, ptr %5) #1
  %14 = load ptr, ptr %4, align 8, !tbaa !13
  store ptr %14, ptr %5, align 8, !tbaa !13
  br label %15

15:                                               ; preds = %44, %9
  %16 = load ptr, ptr %3, align 8, !tbaa !13
  %17 = load i8, ptr %16, align 1, !tbaa !16
  %18 = icmp ne i8 %17, 0
  br i1 %18, label %19, label %47

19:                                               ; preds = %15
  %20 = load ptr, ptr %3, align 8, !tbaa !13
  %21 = load i8, ptr %20, align 1, !tbaa !16
  %22 = sext i8 %21 to i32
  %23 = icmp sge i32 %22, 48
  br i1 %23, label %24, label %29

24:                                               ; preds = %19
  %25 = load ptr, ptr %3, align 8, !tbaa !13
  %26 = load i8, ptr %25, align 1, !tbaa !16
  %27 = sext i8 %26 to i32
  %28 = icmp sle i32 %27, 57
  br i1 %28, label %39, label %29

29:                                               ; preds = %24, %19
  %30 = load ptr, ptr %3, align 8, !tbaa !13
  %31 = load i8, ptr %30, align 1, !tbaa !16
  %32 = sext i8 %31 to i32
  %33 = icmp sge i32 %32, 65
  br i1 %33, label %34, label %44

34:                                               ; preds = %29
  %35 = load ptr, ptr %3, align 8, !tbaa !13
  %36 = load i8, ptr %35, align 1, !tbaa !16
  %37 = sext i8 %36 to i32
  %38 = icmp sle i32 %37, 70
  br i1 %38, label %39, label %44

39:                                               ; preds = %34, %24
  %40 = load ptr, ptr %3, align 8, !tbaa !13
  %41 = load i8, ptr %40, align 1, !tbaa !16
  %42 = load ptr, ptr %5, align 8, !tbaa !13
  %43 = getelementptr inbounds nuw i8, ptr %42, i32 1
  store ptr %43, ptr %5, align 8, !tbaa !13
  store i8 %41, ptr %42, align 1, !tbaa !16
  br label %44

44:                                               ; preds = %39, %34, %29
  %45 = load ptr, ptr %3, align 8, !tbaa !13
  %46 = getelementptr inbounds nuw i8, ptr %45, i32 1
  store ptr %46, ptr %3, align 8, !tbaa !13
  br label %15, !llvm.loop !87

47:                                               ; preds = %15
  %48 = load ptr, ptr %5, align 8, !tbaa !13
  store i8 0, ptr %48, align 1, !tbaa !16
  %49 = load ptr, ptr %4, align 8, !tbaa !13
  store ptr %49, ptr %2, align 8
  call void @llvm.lifetime.end.p0(i64 8, ptr %5) #1
  call void @llvm.lifetime.end.p0(i64 8, ptr %4) #1
  br label %50

50:                                               ; preds = %47, %8
  %51 = load ptr, ptr %2, align 8
  ret ptr %51
}