; Function Attrs: mustprogress uwtable
define dso_local noalias noundef ptr @_ZN5cmsys11SystemTools22RemoveCharsButUpperHexEPKc(ptr noundef readonly %0) local_unnamed_addr #6 align 2 {
  %.not = icmp eq ptr %0, null
  br i1 %.not, label %15, label %2

2:                                                ; preds = %1
  %3 = tail call i64 @strlen(ptr noundef nonnull dereferenceable(1) %0) #43
  %4 = add i64 %3, 1
  %5 = tail call noalias noundef nonnull ptr @_Znam(i64 noundef %4) #44
  %6 = load i8, ptr %0, align 1, !tbaa !20
  %.not2023 = icmp eq i8 %6, 0
  br i1 %.not2023, label %._crit_edge, label %.lr.ph

.lr.ph:                                           ; preds = %2, %12
  %7 = phi i8 [ %14, %12 ], [ %6, %2 ]
  %.025 = phi ptr [ %.1, %12 ], [ %5, %2 ]
  %.01524 = phi ptr [ %13, %12 ], [ %0, %2 ]
  %8 = add i8 %7, -48
  %or.cond = icmp ult i8 %8, 10
  %9 = add i8 %7, -65
  %or.cond21 = icmp ult i8 %9, 6
  %or.cond22 = or i1 %or.cond, %or.cond21
  br i1 %or.cond22, label %10, label %12

10:                                               ; preds = %.lr.ph
  %11 = getelementptr inbounds nuw i8, ptr %.025, i64 1
  store i8 %7, ptr %.025, align 1, !tbaa !20
  br label %12

12:                                               ; preds = %.lr.ph, %10
  %.1 = phi ptr [ %11, %10 ], [ %.025, %.lr.ph ]
  %13 = getelementptr inbounds nuw i8, ptr %.01524, i64 1
  %14 = load i8, ptr %13, align 1, !tbaa !20
  %.not20 = icmp eq i8 %14, 0
  br i1 %.not20, label %._crit_edge, label %.lr.ph, !llvm.loop !64

._crit_edge:                                      ; preds = %12, %2
  %.0.lcssa = phi ptr [ %5, %2 ], [ %.1, %12 ]
  store i8 0, ptr %.0.lcssa, align 1, !tbaa !20
  br label %15

15:                                               ; preds = %1, %._crit_edge
  %.014 = phi ptr [ %5, %._crit_edge ], [ null, %1 ]
  ret ptr %.014
}